target datalayout = "e-m:e-p270:32:32-p271:32:32-p272:64:64-i64:64-i128:128-f80:128-n8:16:32:64-S128"
target triple = "x86_64-pc-linux-gnu"

%"class.std::__cxx11::basic_string" = type { %"struct.std::__cxx11::basic_string<char>::_Alloc_hider", i64, %union.anon }
%"struct.std::__cxx11::basic_string<char>::_Alloc_hider" = type { ptr }
%union.anon = type { i64, [8 x i8] }
%"class.llvm::sys::fs::TempFile" = type <{ i8, [7 x i8], %"class.std::__cxx11::basic_string", i32, [4 x i8] }>

; Function Attrs: mustprogress nounwind uwtable
define dso_local noundef nonnull align 8 dereferenceable(44) ptr @_ZN4llvm3sys2fs8TempFileaSEOS2_(ptr noundef nonnull align 8 dereferenceable(44) %0, ptr noundef nonnull align 8 dereferenceable(44) %1) #0 align 2 {
  %3 = alloca ptr, align 8
  %4 = alloca ptr, align 8
  store ptr %0, ptr %3, align 8
  store ptr %1, ptr %4, align 8
  %5 = load ptr, ptr %3, align 8
  %6 = load ptr, ptr %4, align 8
  %7 = getelementptr inbounds nuw %"class.llvm::sys::fs::TempFile", ptr %6, i32 0, i32 2
  %8 = getelementptr inbounds nuw %"class.llvm::sys::fs::TempFile", ptr %5, i32 0, i32 2
  %9 = call noundef nonnull align 8 dereferenceable(32) ptr @_ZNSt7__cxx1112basic_stringIcSt11char_traitsIcESaIcEEaSEOS4_(ptr noundef nonnull align 8 dereferenceable(32) %8, ptr noundef nonnull align 8 dereferenceable(32) %7) #9
  %10 = load ptr, ptr %4, align 8
  %11 = getelementptr inbounds nuw %"class.llvm::sys::fs::TempFile", ptr %10, i32 0, i32 3
  %12 = load i32, ptr %11, align 8
  %13 = getelementptr inbounds nuw %"class.llvm::sys::fs::TempFile", ptr %5, i32 0, i32 3
  store i32 %12, ptr %13, align 8
  %14 = load ptr, ptr %4, align 8
  %15 = getelementptr inbounds nuw %"class.llvm::sys::fs::TempFile", ptr %14, i32 0, i32 0
  store i8 1, ptr %15, align 8
  %16 = load ptr, ptr %4, align 8
  %17 = getelementptr inbounds nuw %"class.llvm::sys::fs::TempFile", ptr %16, i32 0, i32 3
  store i32 -1, ptr %17, align 8
  ret ptr %5
}