; Function Attrs: mustprogress nounwind uwtable
define dso_local noundef nonnull align 8 dereferenceable(44) ptr @_ZN4llvm3sys2fs8TempFileaSEOS2_(ptr noundef nonnull returned align 8 dereferenceable(44) %0, ptr noundef nonnull align 8 dereferenceable(44) %1) local_unnamed_addr #0 align 2 {
  %3 = getelementptr inbounds nuw i8, ptr %1, i64 8
  %4 = getelementptr inbounds nuw i8, ptr %0, i64 8
  %5 = tail call noundef nonnull align 8 dereferenceable(32) ptr @_ZNSt7__cxx1112basic_stringIcSt11char_traitsIcESaIcEEaSEOS4_(ptr noundef nonnull align 8 dereferenceable(32) %4, ptr noundef nonnull align 8 dereferenceable(32) %3) #30
  %6 = getelementptr inbounds nuw i8, ptr %1, i64 40
  %7 = load i32, ptr %6, align 8
  %8 = getelementptr inbounds nuw i8, ptr %0, i64 40
  store i32 %7, ptr %8, align 8
  store i8 1, ptr %1, align 8
  store i32 -1, ptr %6, align 8
  ret ptr %0
}